; Function Attrs: mustprogress nounwind uwtable
define void @_ZN6google8protobuf2io26CopyingOutputStreamAdaptor10FreeBufferEv(ptr nocapture noundef nonnull align 8 dereferenceable(48) %this) local_unnamed_addr #9 align 2 {
entry:
  %buffer_used_ = getelementptr inbounds i8, ptr %this, i64 44
  store i32 0, ptr %buffer_used_, align 4
  %buffer_ = getelementptr inbounds i8, ptr %this, i64 32
  %0 = load ptr, ptr %buffer_, align 8
  store ptr null, ptr %buffer_, align 8
  %tobool.not.i.i.i = icmp eq ptr %0, null
  br i1 %tobool.not.i.i.i, label %_ZNSt10unique_ptrIA_hSt14default_deleteIS0_EE5resetEDn.exit, label %_ZNKSt14default_deleteIA_hEclIhEENSt9enable_ifIXsr14is_convertibleIPA_T_PS0_EE5valueEvE4typeEPS4_.exit.i.i.i

_ZNKSt14default_deleteIA_hEclIhEENSt9enable_ifIXsr14is_convertibleIPA_T_PS0_EE5valueEvE4typeEPS4_.exit.i.i.i: ; preds = %entry
  tail call void @_ZdaPv(ptr noundef nonnull %0) #28
  br label %_ZNSt10unique_ptrIA_hSt14default_deleteIS0_EE5resetEDn.exit

_ZNSt10unique_ptrIA_hSt14default_deleteIS0_EE5resetEDn.exit: ; preds = %entry, %_ZNKSt14default_deleteIA_hEclIhEENSt9enable_ifIXsr14is_convertibleIPA_T_PS0_EE5valueEvE4typeEPS4_.exit.i.i.i
  ret void
}